target datalayout = "e-m:e-p270:32:32-p271:32:32-p272:64:64-i64:64-i128:128-f80:128-n8:16:32:64-S128"
target triple = "x86_64-pc-linux-gnu"

%struct.FunctionCallInfoBaseData = type { ptr, ptr, ptr, i32, i8, i16, [0 x %struct.NullableDatum] }
%struct.NullableDatum = type { i64, i8 }
%struct.Jsonb = type { i32, %struct.JsonbContainer }
%struct.JsonbContainer = type { i32, [0 x i32] }
%struct.JsonbValue = type { i32, %union.anon }
%union.anon = type { %struct.anon.2 }
%struct.anon.2 = type { i32, ptr, i8 }

@.str.27 = private unnamed_addr constant [9 x i8] c"smallint\00", align 1

; Function Attrs: inlinehint nounwind uwtable
define internal i64 @PointerGetDatum(ptr noundef %0) #2 {
  %2 = alloca ptr, align 8
  store ptr %0, ptr %2, align 8
  %3 = load ptr, ptr %2, align 8
  %4 = ptrtoint ptr %3 to i64
  ret i64 %4
}

; Function Attrs: inlinehint nounwind uwtable
define internal i64 @NumericGetDatum(ptr noundef %0) #2 {
  %2 = alloca ptr, align 8
  store ptr %0, ptr %2, align 8
  %3 = load ptr, ptr %2, align 8
  %4 = call i64 @PointerGetDatum(ptr noundef %3)
  ret i64 %4
}

; Function Attrs: inlinehint nounwind uwtable
define internal ptr @DatumGetPointer(i64 noundef %0) #2 {
  %2 = alloca i64, align 8
  store i64 %0, ptr %2, align 8
  %3 = load i64, ptr %2, align 8
  %4 = inttoptr i64 %3 to ptr
  ret ptr %4
}

; Function Attrs: nounwind uwtable
define dso_local zeroext i1 @JsonbExtractScalar(ptr noundef %0, ptr noundef %1) #0 {
  %3 = alloca i1, align 1
  %4 = alloca ptr, align 8
  %5 = alloca ptr, align 8
  %6 = alloca ptr, align 8
  %7 = alloca i32, align 4
  %8 = alloca %struct.JsonbValue, align 8
  %9 = alloca i32, align 4
  store ptr %0, ptr %4, align 8
  store ptr %1, ptr %5, align 8
  call void @llvm.lifetime.start.p0(i64 8, ptr %6) #8
  call void @llvm.lifetime.start.p0(i64 4, ptr %7) #8
  call void @llvm.lifetime.start.p0(i64 32, ptr %8) #8
  %10 = load ptr, ptr %4, align 8
  %11 = getelementptr inbounds nuw %struct.JsonbContainer, ptr %10, i32 0, i32 0
  %12 = load i32, ptr %11, align 4
  %13 = and i32 %12, 1073741824
  %14 = icmp ne i32 %13, 0
  br i1 %14, label %15, label %21

15:                                               ; preds = %2
  %16 = load ptr, ptr %4, align 8
  %17 = getelementptr inbounds nuw %struct.JsonbContainer, ptr %16, i32 0, i32 0
  %18 = load i32, ptr %17, align 4
  %19 = and i32 %18, 268435456
  %20 = icmp ne i32 %19, 0
  br i1 %20, label %30, label %21

21:                                               ; preds = %15, %2
  %22 = load ptr, ptr %4, align 8
  %23 = getelementptr inbounds nuw %struct.JsonbContainer, ptr %22, i32 0, i32 0
  %24 = load i32, ptr %23, align 4
  %25 = and i32 %24, 1073741824
  %26 = icmp ne i32 %25, 0
  %27 = select i1 %26, i32 16, i32 17
  %28 = load ptr, ptr %5, align 8
  %29 = getelementptr inbounds nuw %struct.JsonbValue, ptr %28, i32 0, i32 0
  store i32 %27, ptr %29, align 8
  store i1 false, ptr %3, align 1
  store i32 1, ptr %9, align 4
  br label %38

30:                                               ; preds = %15
  %31 = load ptr, ptr %4, align 8
  %32 = call ptr @JsonbIteratorInit(ptr noundef %31)
  store ptr %32, ptr %6, align 8
  %33 = call i32 @JsonbIteratorNext(ptr noundef %6, ptr noundef %8, i1 noundef zeroext true)
  store i32 %33, ptr %7, align 4
  %34 = load ptr, ptr %5, align 8
  %35 = call i32 @JsonbIteratorNext(ptr noundef %6, ptr noundef %34, i1 noundef zeroext true)
  store i32 %35, ptr %7, align 4
  %36 = call i32 @JsonbIteratorNext(ptr noundef %6, ptr noundef %8, i1 noundef zeroext true)
  store i32 %36, ptr %7, align 4
  %37 = call i32 @JsonbIteratorNext(ptr noundef %6, ptr noundef %8, i1 noundef zeroext true)
  store i32 %37, ptr %7, align 4
  store i1 true, ptr %3, align 1
  store i32 1, ptr %9, align 4
  br label %38

38:                                               ; preds = %30, %21
  call void @llvm.lifetime.end.p0(i64 32, ptr %8) #8
  call void @llvm.lifetime.end.p0(i64 4, ptr %7) #8
  call void @llvm.lifetime.end.p0(i64 8, ptr %6) #8
  %39 = load i1, ptr %3, align 1
  ret i1 %39
}

; Function Attrs: inlinehint nounwind uwtable
define internal ptr @DatumGetJsonbP(i64 noundef %0) #2 {
  %2 = alloca i64, align 8
  store i64 %0, ptr %2, align 8
  %3 = load i64, ptr %2, align 8
  %4 = call ptr @DatumGetPointer(i64 noundef %3)
  %5 = call ptr @pg_detoast_datum(ptr noundef %4)
  ret ptr %5
}

; Function Attrs: nounwind uwtable
define dso_local i64 @jsonb_int2(ptr noundef %0) #0 {
  %2 = alloca i64, align 8
  %3 = alloca ptr, align 8
  %4 = alloca ptr, align 8
  %5 = alloca %struct.JsonbValue, align 8
  %6 = alloca i64, align 8
  %7 = alloca i32, align 4
  store ptr %0, ptr %3, align 8
  call void @llvm.lifetime.start.p0(i64 8, ptr %4) #8
  %8 = load ptr, ptr %3, align 8
  %9 = getelementptr inbounds nuw %struct.FunctionCallInfoBaseData, ptr %8, i32 0, i32 6
  %10 = getelementptr inbounds [0 x %struct.NullableDatum], ptr %9, i64 0, i64 0
  %11 = getelementptr inbounds nuw %struct.NullableDatum, ptr %10, i32 0, i32 0
  %12 = load i64, ptr %11, align 8
  %13 = call ptr @DatumGetJsonbP(i64 noundef %12)
  store ptr %13, ptr %4, align 8
  call void @llvm.lifetime.start.p0(i64 32, ptr %5) #8
  call void @llvm.lifetime.start.p0(i64 8, ptr %6) #8
  %14 = load ptr, ptr %4, align 8
  %15 = getelementptr inbounds nuw %struct.Jsonb, ptr %14, i32 0, i32 1
  %16 = call zeroext i1 @JsonbExtractScalar(ptr noundef %15, ptr noundef %5)
  br i1 %16, label %20, label %17

17:                                               ; preds = %1
  %18 = getelementptr inbounds nuw %struct.JsonbValue, ptr %5, i32 0, i32 0
  %19 = load i32, ptr %18, align 8
  call void @cannotCastJsonbValue(i32 noundef %19, ptr noundef @.str.27)
  br label %20

20:                                               ; preds = %17, %1
  %21 = getelementptr inbounds nuw %struct.JsonbValue, ptr %5, i32 0, i32 0
  %22 = load i32, ptr %21, align 8
  %23 = icmp eq i32 %22, 0
  br i1 %23, label %24, label %44

24:                                               ; preds = %20
  br label %25

25:                                               ; preds = %24
  %26 = load ptr, ptr %4, align 8
  %27 = load ptr, ptr %3, align 8
  %28 = getelementptr inbounds nuw %struct.FunctionCallInfoBaseData, ptr %27, i32 0, i32 6
  %29 = getelementptr inbounds [0 x %struct.NullableDatum], ptr %28, i64 0, i64 0
  %30 = getelementptr inbounds nuw %struct.NullableDatum, ptr %29, i32 0, i32 0
  %31 = load i64, ptr %30, align 8
  %32 = call ptr @DatumGetPointer(i64 noundef %31)
  %33 = icmp ne ptr %26, %32
  br i1 %33, label %34, label %36

34:                                               ; preds = %25
  %35 = load ptr, ptr %4, align 8
  call void @pfree(ptr noundef %35)
  br label %36

36:                                               ; preds = %34, %25
  br label %37

37:                                               ; preds = %36
  br label %38

38:                                               ; preds = %37
  br label %39

39:                                               ; preds = %38
  %40 = load ptr, ptr %3, align 8
  %41 = getelementptr inbounds nuw %struct.FunctionCallInfoBaseData, ptr %40, i32 0, i32 4
  store i8 1, ptr %41, align 4
  store i64 0, ptr %2, align 8
  store i32 1, ptr %7, align 4
  br label %71

42:                                               ; No predecessors!
  br label %43

43:                                               ; preds = %42
  br label %44

44:                                               ; preds = %43, %20
  %45 = getelementptr inbounds nuw %struct.JsonbValue, ptr %5, i32 0, i32 0
  %46 = load i32, ptr %45, align 8
  %47 = icmp ne i32 %46, 2
  br i1 %47, label %48, label %51

48:                                               ; preds = %44
  %49 = getelementptr inbounds nuw %struct.JsonbValue, ptr %5, i32 0, i32 0
  %50 = load i32, ptr %49, align 8
  call void @cannotCastJsonbValue(i32 noundef %50, ptr noundef @.str.27)
  br label %51

51:                                               ; preds = %48, %44
  %52 = getelementptr inbounds nuw %struct.JsonbValue, ptr %5, i32 0, i32 1
  %53 = load ptr, ptr %52, align 8
  %54 = call i64 @NumericGetDatum(ptr noundef %53)
  %55 = call i64 @DirectFunctionCall1Coll(ptr noundef @numeric_int2, i32 noundef 0, i64 noundef %54)
  store i64 %55, ptr %6, align 8
  br label %56

56:                                               ; preds = %51
  %57 = load ptr, ptr %4, align 8
  %58 = load ptr, ptr %3, align 8
  %59 = getelementptr inbounds nuw %struct.FunctionCallInfoBaseData, ptr %58, i32 0, i32 6
  %60 = getelementptr inbounds [0 x %struct.NullableDatum], ptr %59, i64 0, i64 0
  %61 = getelementptr inbounds nuw %struct.NullableDatum, ptr %60, i32 0, i32 0
  %62 = load i64, ptr %61, align 8
  %63 = call ptr @DatumGetPointer(i64 noundef %62)
  %64 = icmp ne ptr %57, %63
  br i1 %64, label %65, label %67

65:                                               ; preds = %56
  %66 = load ptr, ptr %4, align 8
  call void @pfree(ptr noundef %66)
  br label %67

67:                                               ; preds = %65, %56
  br label %68

68:                                               ; preds = %67
  br label %69

69:                                               ; preds = %68
  %70 = load i64, ptr %6, align 8
  store i64 %70, ptr %2, align 8
  store i32 1, ptr %7, align 4
  br label %71

71:                                               ; preds = %69, %39
  call void @llvm.lifetime.end.p0(i64 8, ptr %6) #8
  call void @llvm.lifetime.end.p0(i64 32, ptr %5) #8
  call void @llvm.lifetime.end.p0(i64 8, ptr %4) #8
  %72 = load i64, ptr %2, align 8
  ret i64 %72
}